; ModuleID = '29/1480.c'
source_filename = "29/1480.c"
target datalayout = "e-m:e-p270:32:32-p271:32:32-p272:64:64-i64:64-f80:128-n8:16:32:64-S128"
target triple = "x86_64-pc-linux-gnu"

@.str = private unnamed_addr constant [3 x i8] c"%d\00", align 1
@.str.1 = private unnamed_addr constant [6 x i8] c"%.3f\0A\00", align 1

; Function Attrs: noinline nounwind uwtable
define dso_local float @f(i32 %0) #0 {
  %2 = alloca float, align 4
  %3 = alloca i32, align 4
  %4 = alloca float, align 4
  store i32 %0, i32* %3, align 4
  %5 = load i32, i32* %3, align 4
  %6 = icmp eq i32 %5, 1
  br i1 %6, label %7, label %8

7:                                                ; preds = %1
  store float 1.000000e+00, float* %4, align 4
  store float 1.000000e+00, float* %2, align 4
  br label %26

8:                                                ; preds = %1
  %9 = load i32, i32* %3, align 4
  %10 = icmp eq i32 %9, 2
  br i1 %10, label %11, label %12

11:                                               ; preds = %8
  store float 2.000000e+00, float* %4, align 4
  store float 2.000000e+00, float* %2, align 4
  br label %26

12:                                               ; preds = %8
  %13 = load i32, i32* %3, align 4
  %14 = icmp ne i32 %13, 1
  br i1 %14, label %15, label %26

15:                                               ; preds = %12
  %16 = load i32, i32* %3, align 4
  %17 = icmp ne i32 %16, 2
  br i1 %17, label %18, label %26

18:                                               ; preds = %15
  %19 = load i32, i32* %3, align 4
  %20 = sub nsw i32 %19, 1
  %21 = call float @f(i32 %20)
  %22 = load i32, i32* %3, align 4
  %23 = sub nsw i32 %22, 2
  %24 = call float @f(i32 %23)
  %25 = fadd float %21, %24
  store float %25, float* %4, align 4
  store float %25, float* %2, align 4
  br label %26

26:                                               ; preds = %7, %11, %18, %15, %12
  %27 = load float, float* %2, align 4
  ret float %27
}

; Function Attrs: noinline nounwind uwtable
define dso_local i32 @main() #0 {
  %1 = alloca i32, align 4
  %2 = alloca i32, align 4
  %3 = alloca i32, align 4
  %4 = alloca i32, align 4
  %5 = alloca i32, align 4
  %6 = alloca i32, align 4
  %7 = alloca float, align 4
  store i32 0, i32* %1, align 4
  %8 = call i32 (i8*, ...) @__isoc99_scanf(i8* getelementptr inbounds ([3 x i8], [3 x i8]* @.str, i64 0, i64 0), i32* %2)
  store i32 0, i32* %4, align 4
  br label %9

9:                                                ; preds = %37, %0
  %10 = load i32, i32* %4, align 4
  %11 = load i32, i32* %2, align 4
  %12 = icmp slt i32 %10, %11
  br i1 %12, label %13, label %40

13:                                               ; preds = %9
  %14 = call i32 (i8*, ...) @__isoc99_scanf(i8* getelementptr inbounds ([3 x i8], [3 x i8]* @.str, i64 0, i64 0), i32* %3)
  store float 0.000000e+00, float* %7, align 4
  store i32 1, i32* %6, align 4
  store i32 0, i32* %5, align 4
  br label %15

15:                                               ; preds = %30, %13
  %16 = load i32, i32* %5, align 4
  %17 = load i32, i32* %3, align 4
  %18 = icmp slt i32 %16, %17
  br i1 %18, label %19, label %33

19:                                               ; preds = %15
  %20 = load float, float* %7, align 4
  %21 = load i32, i32* %6, align 4
  %22 = add nsw i32 %21, 1
  %23 = call float @f(i32 %22)
  %24 = load i32, i32* %6, align 4
  %25 = call float @f(i32 %24)
  %26 = fdiv float %23, %25
  %27 = fadd float %20, %26
  store float %27, float* %7, align 4
  %28 = load i32, i32* %6, align 4
  %29 = add nsw i32 %28, 1
  store i32 %29, i32* %6, align 4
  br label %30

30:                                               ; preds = %19
  %31 = load i32, i32* %5, align 4
  %32 = add nsw i32 %31, 1
  store i32 %32, i32* %5, align 4
  br label %15

33:                                               ; preds = %15
  %34 = load float, float* %7, align 4
  %35 = fpext float %34 to double
  %36 = call i32 (i8*, ...) @printf(i8* getelementptr inbounds ([6 x i8], [6 x i8]* @.str.1, i64 0, i64 0), double %35)
  br label %37

37:                                               ; preds = %33
  %38 = load i32, i32* %4, align 4
  %39 = add nsw i32 %38, 1
  store i32 %39, i32* %4, align 4
  br label %9

40:                                               ; preds = %9
  %41 = load i32, i32* %1, align 4
  ret i32 %41
}

declare dso_local i32 @__isoc99_scanf(i8*, ...) #1

declare dso_local i32 @printf(i8*, ...) #1


!llvm.module.flags = !{!0}
!llvm.ident = !{!1}

!0 = !{i32 1, !"wchar_size", i32 4}
!1 = !{!"clang version 10.0.0-4ubuntu1 "}
